; ModuleID = '12/1044.c'
source_filename = "12/1044.c"
target datalayout = "e-m:e-p270:32:32-p271:32:32-p272:64:64-i64:64-f80:128-n8:16:32:64-S128"
target triple = "x86_64-pc-linux-gnu"

@.str = private unnamed_addr constant [3 x i8] c"%d\00", align 1
@.str.1 = private unnamed_addr constant [4 x i8] c"%d\0A\00", align 1

; Function Attrs: noinline nounwind uwtable
define dso_local i32 @main(i32 %0, i8** %1) #0 {
  %3 = alloca i32, align 4
  %4 = alloca i32, align 4
  %5 = alloca i8**, align 8
  %6 = alloca [16 x i32], align 16
  %7 = alloca i32, align 4
  %8 = alloca i32, align 4
  %9 = alloca i32, align 4
  %10 = alloca i32, align 4
  store i32 0, i32* %3, align 4
  store i32 %0, i32* %4, align 4
  store i8** %1, i8*** %5, align 8
  %11 = bitcast [16 x i32]* %6 to i8*
  call void @llvm.memset.p0i8.i64(i8* align 16 %11, i8 0, i64 64, i1 false)
  store i32 0, i32* %10, align 4
  store i32 0, i32* %7, align 4
  br label %12

12:                                               ; preds = %79, %2
  %13 = load i32, i32* %7, align 4
  %14 = sext i32 %13 to i64
  %15 = getelementptr inbounds [16 x i32], [16 x i32]* %6, i64 0, i64 %14
  %16 = call i32 (i8*, ...) @__isoc99_scanf(i8* getelementptr inbounds ([3 x i8], [3 x i8]* @.str, i64 0, i64 0), i32* %15)
  %17 = load i32, i32* %7, align 4
  %18 = sext i32 %17 to i64
  %19 = getelementptr inbounds [16 x i32], [16 x i32]* %6, i64 0, i64 %18
  %20 = load i32, i32* %19, align 4
  %21 = icmp eq i32 %20, 0
  br i1 %21, label %22, label %71

22:                                               ; preds = %12
  store i32 0, i32* %8, align 4
  br label %23

23:                                               ; preds = %65, %22
  %24 = load i32, i32* %8, align 4
  %25 = load i32, i32* %7, align 4
  %26 = sub nsw i32 %25, 1
  %27 = icmp slt i32 %24, %26
  br i1 %27, label %28, label %68

28:                                               ; preds = %23
  %29 = load i32, i32* %8, align 4
  %30 = add nsw i32 %29, 1
  store i32 %30, i32* %9, align 4
  br label %31

31:                                               ; preds = %61, %28
  %32 = load i32, i32* %9, align 4
  %33 = load i32, i32* %7, align 4
  %34 = icmp slt i32 %32, %33
  br i1 %34, label %35, label %64

35:                                               ; preds = %31
  %36 = load i32, i32* %8, align 4
  %37 = sext i32 %36 to i64
  %38 = getelementptr inbounds [16 x i32], [16 x i32]* %6, i64 0, i64 %37
  %39 = load i32, i32* %38, align 4
  %40 = load i32, i32* %9, align 4
  %41 = sext i32 %40 to i64
  %42 = getelementptr inbounds [16 x i32], [16 x i32]* %6, i64 0, i64 %41
  %43 = load i32, i32* %42, align 4
  %44 = mul nsw i32 2, %43
  %45 = icmp eq i32 %39, %44
  br i1 %45, label %57, label %46

46:                                               ; preds = %35
  %47 = load i32, i32* %8, align 4
  %48 = sext i32 %47 to i64
  %49 = getelementptr inbounds [16 x i32], [16 x i32]* %6, i64 0, i64 %48
  %50 = load i32, i32* %49, align 4
  %51 = mul nsw i32 2, %50
  %52 = load i32, i32* %9, align 4
  %53 = sext i32 %52 to i64
  %54 = getelementptr inbounds [16 x i32], [16 x i32]* %6, i64 0, i64 %53
  %55 = load i32, i32* %54, align 4
  %56 = icmp eq i32 %51, %55
  br i1 %56, label %57, label %60

57:                                               ; preds = %46, %35
  %58 = load i32, i32* %10, align 4
  %59 = add nsw i32 %58, 1
  store i32 %59, i32* %10, align 4
  br label %60

60:                                               ; preds = %57, %46
  br label %61

61:                                               ; preds = %60
  %62 = load i32, i32* %9, align 4
  %63 = add nsw i32 %62, 1
  store i32 %63, i32* %9, align 4
  br label %31

64:                                               ; preds = %31
  br label %65

65:                                               ; preds = %64
  %66 = load i32, i32* %8, align 4
  %67 = add nsw i32 %66, 1
  store i32 %67, i32* %8, align 4
  br label %23

68:                                               ; preds = %23
  %69 = load i32, i32* %10, align 4
  %70 = call i32 (i8*, ...) @printf(i8* getelementptr inbounds ([4 x i8], [4 x i8]* @.str.1, i64 0, i64 0), i32 %69)
  store i32 0, i32* %10, align 4
  store i32 -1, i32* %7, align 4
  br label %71

71:                                               ; preds = %68, %12
  %72 = load i32, i32* %7, align 4
  %73 = sext i32 %72 to i64
  %74 = getelementptr inbounds [16 x i32], [16 x i32]* %6, i64 0, i64 %73
  %75 = load i32, i32* %74, align 4
  %76 = icmp eq i32 %75, -1
  br i1 %76, label %77, label %78

77:                                               ; preds = %71
  br label %82

78:                                               ; preds = %71
  br label %79

79:                                               ; preds = %78
  %80 = load i32, i32* %7, align 4
  %81 = add nsw i32 %80, 1
  store i32 %81, i32* %7, align 4
  br label %12

82:                                               ; preds = %77
  ret i32 0
}

; Function Attrs: argmemonly nounwind willreturn
declare void @llvm.memset.p0i8.i64(i8* nocapture writeonly, i8, i64, i1 immarg) #1

declare dso_local i32 @__isoc99_scanf(i8*, ...) #2

declare dso_local i32 @printf(i8*, ...) #2


!llvm.module.flags = !{!0}
!llvm.ident = !{!1}

!0 = !{i32 1, !"wchar_size", i32 4}
!1 = !{!"clang version 10.0.0-4ubuntu1 "}
